(dp0
S'./blog/other/posts/index.mkd'
p1
F1351872020.4851837
sS'./blog/vim/posts/8.mkd'
p2
F1353515991.503099
sS'./blog/C/posts/15.mkd'
p3
F1351872020.4785171
sS'./blog/C/posts/10.mkd'
p4
F1351872020.4785171
sS'./blog/javascript/posts/index.mkd'
p5
F1351872020.4851837
sS'./blog/ArchLinux/posts/2.mkd'
p6
F1351872020.4785171
sS'./blog/C/posts/index.mkd'
p7
F1351872020.4818504
sS'./blog/ArchLinux/posts/7.mkd'
p8
F1351872020.4785171
sS'./blog/vim/posts/4.mkd'
p9
F1351872020.4851837
sS'./blog/Python/posts/6.mkd'
p10
F1351872020.4851837
sS'./blog/index.mkd'
p11
F1351872020.4851837
sS'./blog/C/posts/16.mkd'
p12
F1351872020.4785171
sS'./blog/Programing/posts/index.mkd'
p13
F1351872020.4818504
sS'./blog/Python/posts/index.mkd'
p14
F1351872020.4851837
sS'./index.mkd'
p15
F1351872020.4851837
sS'./wiki/python_re/index.mkd'
p16
F1351872020.488517
sS'./wiki/index.mkd'
p17
F1351872020.488517
sS'./blog/C/posts/19.mkd'
p18
F1351872020.4785171
sS'./blog/Python/posts/5.mkd'
p19
F1351872020.4851837
sS'./links.mkd'
p20
F1352320862.150722
sS'./blog/Python/posts/3.mkd'
p21
F1351872020.4851837
sS'./blog/Google/index.mkd'
p22
F1351872020.4818504
sS'./blog/C/posts/8.mkd'
p23
F1351872020.4818504
sS'./blog/C/posts/6.mkd'
p24
F1351872020.4818504
sS'./blog/C/posts/17.mkd'
p25
F1351872020.4785171
sS'./blog/C/posts/2.mkd'
p26
F1351872020.4785171
sS'./blog/Qs/posts/2.mkd'
p27
F1351872020.4851837
sS'./blog/Python/posts/2.mkd'
p28
F1351872020.4818504
sS'./blog/C/posts/3.mkd'
p29
F1351872020.4818504
sS'./About.mkd'
p30
F1351872020.4785171
sS'./blog/Data_Structures_Qs/posts/index.mkd'
p31
F1351872020.4818504
sS'./blog/Git/index.mkd'
p32
F1351872020.4818504
sS'./blog/javascript/index.mkd'
p33
F1351872020.4851837
sS'./blog/ArchLinux/posts/14.mkd'
p34
F1353609834.9344461
sS'./blog/C/posts/25.mkd'
p35
F1352049697.4550498
sS'./wiki/php-mysql-orm/index.mkd'
p36
F1351872020.488517
sS'./wiki/cmake/index.mkd'
p37
F1351872020.488517
sS'./blog/ArchLinux/posts/10.mkd'
p38
F1351872020.4785171
sS'./wiki/vim_study/index.mkd'
p39
F1351872020.488517
sS'./blog/Python/posts/12.mkd'
p40
F1353535589.0100434
sS'./blog/C/posts/12.mkd'
p41
F1353609898.3044486
sS'./blog/C/posts/24.mkd'
p42
F1351872020.4818504
sS'./blog/Programing/index.mkd'
p43
F1351872020.4818504
sS'./wiki/ruby/index.mkd'
p44
F1351872020.488517
sS'./blog/Python/posts/13.mkd'
p45
F1353619531.9481761
sS'./wiki/funny-c-codes/index.mkd'
p46
F1353624763.9117236
sS'./blog/Python/posts/11.mkd'
p47
F1351894420.0526438
sS'./blog/ArchLinux/posts/8.mkd'
p48
F1351872020.4785171
sS'./blog/C/posts/4.mkd'
p49
F1351872020.4818504
sS'./blog/ICPC/index.mkd'
p50
F1351872020.4818504
sS'./blog/Python/index.mkd'
p51
F1353620154.1948683
sS'./blog/Qs/posts/index.mkd'
p52
F1351872020.4851837
sS'./blog/ArchLinux/posts/3.mkd'
p53
F1351872020.4785171
sS'./blog/Git/posts/3.mkd'
p54
F1351872020.4818504
sS'./blog/ArchLinux/posts/5.mkd'
p55
F1351872020.4785171
sS'./blog/Python/posts/4.mkd'
p56
F1351872020.4851837
sS'./blog/C/posts/26.mkd'
p57
F1351872020.4818504
sS'./dir_html.mkd'
p58
F1353537560.3093638
sS'./blog/Python/posts/14.mkd'
p59
F1353620439.6348801
sS'./blog/vim/index.mkd'
p60
F1353515667.6881864
sS'./blog/vim/posts/5.mkd'
p61
F1351872020.4851837
sS'./blog/ArchLinux/posts/index.mkd'
p62
F1351872020.4785171
sS'./blog/C/posts/18.mkd'
p63
F1351872020.4785171
sS'./blog/PHP/posts/2.mkd'
p64
F1351872020.4818504
sS'./wiki/phptips/index.mkd'
p65
F1351872020.488517
sS'./blog/C/posts/11.mkd'
p66
F1351872020.4785171
sS'./blog/Python/posts/7.mkd'
p67
F1351872020.4851837
sS'./blog/Python/posts/9.mkd'
p68
F1351872020.4851837
sS'./blog/C/posts/22.mkd'
p69
F1351872020.4785171
sS'./blog/Qs/posts/4.mkd'
p70
F1351872020.4851837
sS'./blog/C/posts/14.mkd'
p71
F1351872020.4785171
sS'./blog/C/posts/13.mkd'
p72
F1351872020.4785171
sS'./blog/C/posts/21.mkd'
p73
F1351872020.4785171
sS'./blog/vim/posts/6.mkd'
p74
F1351872020.4851837
sS'./blog/ArchLinux/posts/13.mkd'
p75
F1353512151.1572371
sS'./blog/C/posts/27.mkd'
p76
F1352754918.4263353
sS'./blog/ICPC/posts/index.mkd'
p77
F1351872020.4818504
sS'./blog/PHP/posts/index.mkd'
p78
F1351872020.4818504
sS'./blog/ArchLinux/posts/9.mkd'
p79
F1351872020.4785171
sS'./blog/ArchLinux/posts/12.mkd'
p80
F1351872020.4785171
sS'./blog/Python/posts/10.mkd'
p81
F1351872020.4818504
sS'./blog/ArchLinux/index.mkd'
p82
F1353608150.4877105
sS'./wiki/python/index.mkd'
p83
F1353620634.0882213
sS'./blog/C/posts/9.mkd'
p84
F1351872020.4818504
sS'./blog/Qs/posts/5.mkd'
p85
F1351872020.4851837
sS'./blog/ArchLinux/posts/11.mkd'
p86
F1351872020.4785171
sS'./blog/vim/posts/7.mkd'
p87
F1353515019.038367
sS'./blog/C/index.mkd'
p88
F1352411772.0139511
sS'./blog/Git/posts/2.mkd'
p89
F1351872020.4818504
sS'./blog/C/posts/23.mkd'
p90
F1351968680.2682304
sS'./blog/ArchLinux/posts/4.mkd'
p91
F1351872020.4785171
sS'./blog/vim/posts/3.mkd'
p92
F1351872020.4851837
sS'./blog/Qs/index.mkd'
p93
F1353535821.6221166
sS'./wiki/phptips/3.mkd'
p94
F1351872020.488517
sS'./project/index.mkd'
p95
F1352756586.8497369
sS'./blog/ArchLinux/posts/6.mkd'
p96
F1351872020.4785171
sS'./blog/C/posts/5.mkd'
p97
F1351872020.4818504
sS'./blog/Data_Structures_Qs/index.mkd'
p98
F1351872020.4818504
sS'./blog/Qs/posts/6.mkd'
p99
F1353537545.6194434
sS'./blog/C/posts/7.mkd'
p100
F1351872020.4818504
sS'./blog/vim/posts/2.mkd'
p101
F1351872020.4851837
sS'./blog/C/posts/20.mkd'
p102
F1351872020.4785171
sS'./blog/other/index.mkd'
p103
F1351979660.7686114
sS'./blog/Programing/posts/2.mkd'
p104
F1351872020.4818504
sS'./blog/other/posts/2.mkd'
p105
F1351979851.9452846
sS'./blog/Git/posts/index.mkd'
p106
F1351872020.4818504
sS'./blog/Google/posts/index.mkd'
p107
F1351872020.4818504
sS'./blog/Qs/posts/3.mkd'
p108
F1351872020.4851837
sS'./wiki/phptips/2.mkd'
p109
F1351872020.488517
sS'./blog/vim/posts/index.mkd'
p110
F1351872020.4851837
sS'./blog/Python/posts/8.mkd'
p111
F1351872020.4851837
sS'./blog/PHP/index.mkd'
p112
F1351872020.4818504
s.