(dp0
S'./wiki/php-mysql-orm/index.mkd'
p1
F1364825634.1941383
sS'./blog/other/posts/index.mkd'
p2
F1364825634.1901383
sS'./blog/other/posts/3.mkd'
p3
F1364825634.1901383
sS'./blog/C/posts/28.mkd'
p4
F1364825634.1821384
sS'./blog/Ubuntu/index.mkd'
p5
F1364825634.1901383
sS'./blog/C/posts/29.mkd'
p6
F1364825634.1821384
sS'./wiki/phptips/4.mkd'
p7
F1364825634.1941383
sS'./blog/vim/posts/8.mkd'
p8
F1364825634.1941383
sS'./blog/C/posts/15.mkd'
p9
F1364825634.1821384
sS'./blog/other/posts/9.mkd'
p10
F1364825634.1901383
sS'./blog/C/posts/10.mkd'
p11
F1364825634.1821384
sS'./blog/Python/posts/20.mkd'
p12
F1364825634.1861384
sS'./blog/javascript/posts/index.mkd'
p13
F1364825634.1901383
sS'./blog/ArchLinux/posts/2.mkd'
p14
F1364825634.1821384
sS'./blog/C/posts/index.mkd'
p15
F1364825634.1861384
sS'./blog/Git/posts/4.mkd'
p16
F1364825634.1861384
sS'./blog/ArchLinux/posts/7.mkd'
p17
F1364825634.1821384
sS'./blog/vim/posts/4.mkd'
p18
F1364825634.1941383
sS'./blog/Python/posts/6.mkd'
p19
F1364825634.1901383
sS'./blog/vim/posts/3.mkd'
p20
F1364825634.1941383
sS'./blog/C/posts/16.mkd'
p21
F1364825634.1821384
sS'./blog/Programing/posts/index.mkd'
p22
F1364825634.1861384
sS'./blog/Python/posts/index.mkd'
p23
F1364825634.1901383
sS'./index.mkd'
p24
F1366104093.317427
sS'./wiki/python_re/index.mkd'
p25
F1364825634.1941383
sS'./wiki/index.mkd'
p26
F1364825634.1941383
sS'./blog/C/posts/19.mkd'
p27
F1364825634.1821384
sS'./blog/Python/posts/5.mkd'
p28
F1364825634.1901383
sS'./links.mkd'
p29
F1364825634.1941383
sS'./blog/other/posts/10.mkd'
p30
F1364825634.1901383
sS'./blog/Python/posts/22.mkd'
p31
F1364825634.1861384
sS'./blog/other/posts/11.mkd'
p32
F1364825634.1901383
sS'./blog/Python/posts/3.mkd'
p33
F1364825634.1861384
sS'./blog/Git/posts/5.mkd'
p34
F1364825634.1861384
sS'./blog/Google/index.mkd'
p35
F1364825634.1861384
sS'./blog/C/posts/8.mkd'
p36
F1364825634.1861384
sS'./blog/C/posts/6.mkd'
p37
F1364825634.1821384
sS'./blog/C/posts/17.mkd'
p38
F1364825634.1821384
sS'./blog/C/posts/2.mkd'
p39
F1364825634.1821384
sS'./blog/Qs/posts/2.mkd'
p40
F1364825634.1901383
sS'./blog/Python/posts/2.mkd'
p41
F1364825634.1861384
sS'./blog/Ubuntu/posts/4.mkd'
p42
F1364825634.1901383
sS'./blog/other/posts/6.mkd'
p43
F1364825634.1901383
sS'./About.mkd'
p44
F1364825634.1821384
sS'./blog/Python/posts/10.mkd'
p45
F1364825634.1861384
sS'./blog/Git/index.mkd'
p46
F1364825634.1861384
sS'./blog/javascript/index.mkd'
p47
F1364825634.1901383
sS'./blog/Ubuntu/posts/5.mkd'
p48
F1364825634.1901383
sS'./blog/ArchLinux/posts/14.mkd'
p49
F1364825634.1821384
sS'./blog/C/posts/25.mkd'
p50
F1364825634.1821384
sS'./blog/other/posts/12.mkd'
p51
F1364825634.1901383
sS'./blog/vim/index.mkd'
p52
F1364825634.1901383
sS'./blog/ArchLinux/posts/10.mkd'
p53
F1364825634.1821384
sS'./wiki/vim_study/index.mkd'
p54
F1364825634.1941383
sS'./blog/Python/posts/12.mkd'
p55
F1364825634.1861384
sS'./blog/other/posts/8.mkd'
p56
F1364825634.1901383
sS'./blog/Python/posts/18.mkd'
p57
F1364825634.1861384
sS'./blog/Git/posts/6.mkd'
p58
F1364825634.1861384
sS'./blog/Git/posts/7.mkd'
p59
F1364825634.1861384
sS'./blog/Python/posts/19.mkd'
p60
F1364825634.1861384
sS'./blog/C/posts/12.mkd'
p61
F1364825634.1821384
sS'./blog/C/posts/24.mkd'
p62
F1364825634.1821384
sS'./blog/Programing/index.mkd'
p63
F1364825634.1861384
sS'./blog/other/posts/4.mkd'
p64
F1364825634.1901383
sS'./blog/Python/posts/13.mkd'
p65
F1364825634.1861384
sS'./wiki/funny-c-codes/index.mkd'
p66
F1364825634.1941383
sS'./blog/Python/posts/17.mkd'
p67
F1364825634.1861384
sS'./blog/Python/posts/11.mkd'
p68
F1364825634.1861384
sS'./blog/ArchLinux/posts/8.mkd'
p69
F1364825634.1821384
sS'./blog/C/posts/4.mkd'
p70
F1364825634.1821384
sS'./blog/Git/posts/8.mkd'
p71
F1364825634.1861384
sS'./blog/coffeescript/posts/index.mkd'
p72
F1364825634.1901383
sS'./blog/Python/index.mkd'
p73
F1364825634.1861384
sS'./blog/Qs/posts/index.mkd'
p74
F1364825634.1901383
sS'./blog/Ubuntu/posts/3.mkd'
p75
F1364825634.1901383
sS'./blog/ArchLinux/posts/3.mkd'
p76
F1364825634.1821384
sS'./blog/Git/posts/3.mkd'
p77
F1364825634.1861384
sS'./blog/ArchLinux/posts/5.mkd'
p78
F1364825634.1821384
sS'./blog/Python/posts/4.mkd'
p79
F1364825634.1901383
sS'./blog/Qs/posts/7.mkd'
p80
F1364825634.1901383
sS'./blog/C/posts/26.mkd'
p81
F1364825634.1821384
sS'./blog/other/posts/7.mkd'
p82
F1364825634.1901383
sS'./dir_html.mkd'
p83
F1364825634.1941383
sS'./blog/Python/posts/14.mkd'
p84
F1364825634.1861384
sS'./blog/C/posts/3.mkd'
p85
F1364825634.1821384
sS'./blog/vim/posts/5.mkd'
p86
F1364825634.1941383
sS'./blog/ArchLinux/posts/index.mkd'
p87
F1364825634.1821384
sS'./blog/C/posts/18.mkd'
p88
F1364825634.1821384
sS'./blog/PHP/posts/2.mkd'
p89
F1364825634.1861384
sS'./wiki/phptips/index.mkd'
p90
F1364825634.1941383
sS'./blog/C/posts/11.mkd'
p91
F1364825634.1821384
sS'./blog/Python/posts/7.mkd'
p92
F1364825634.1901383
sS'./blog/Python/posts/9.mkd'
p93
F1364825634.1901383
sS'./blog/ICPC/index.mkd'
p94
F1364825634.1861384
sS'./blog/ArchLinux/posts/4.mkd'
p95
F1364825634.1821384
sS'./blog/Qs/posts/4.mkd'
p96
F1364825634.1901383
sS'./blog/C/posts/14.mkd'
p97
F1364825634.1821384
sS'./blog/C/posts/13.mkd'
p98
F1364825634.1821384
sS'./wiki/C-tricks/index.mkd'
p99
F1364825634.1941383
sS'./blog/coffeescript/index.mkd'
p100
F1364825634.1901383
sS'./blog/C/posts/21.mkd'
p101
F1364825634.1821384
sS'./blog/vim/posts/6.mkd'
p102
F1364825634.1941383
sS'./blog/ArchLinux/posts/13.mkd'
p103
F1364825634.1821384
sS'./blog/C/posts/27.mkd'
p104
F1364825634.1821384
sS'./blog/Python/posts/21.mkd'
p105
F1364825634.1861384
sS'./blog/vim/posts/9.mkd'
p106
F1364825634.1941383
sS'./blog/ICPC/posts/index.mkd'
p107
F1364825634.1861384
sS'./blog/Ubuntu/posts/2.mkd'
p108
F1364825634.1901383
sS'./blog/PHP/posts/index.mkd'
p109
F1364825634.1861384
sS'./blog/ArchLinux/posts/9.mkd'
p110
F1364825634.1821384
sS'./blog/ArchLinux/posts/12.mkd'
p111
F1364825634.1821384
sS'./blog/Data_Structures_Qs/posts/index.mkd'
p112
F1364825634.1861384
sS'./blog/ArchLinux/index.mkd'
p113
F1364825634.1821384
sS'./wiki/python/index.mkd'
p114
F1364825634.1941383
sS'./blog/C/posts/9.mkd'
p115
F1364825634.1861384
sS'./blog/Qs/posts/5.mkd'
p116
F1364825634.1901383
sS'./blog/ArchLinux/posts/11.mkd'
p117
F1364825634.1821384
sS'./blog/vim/posts/7.mkd'
p118
F1364825634.1941383
sS'./blog/C/index.mkd'
p119
F1364825634.1821384
sS'./blog/Git/posts/2.mkd'
p120
F1364825634.1861384
sS'./blog/C/posts/23.mkd'
p121
F1364825634.1821384
sS'./blog/C/posts/22.mkd'
p122
F1364825634.1821384
sS'./blog/index.mkd'
p123
F1364825634.1901383
sS'./blog/PHP/posts/3.mkd'
p124
F1364825634.1861384
sS'./blog/Qs/index.mkd'
p125
F1364825634.1901383
sS'./wiki/phptips/3.mkd'
p126
F1364825634.1941383
sS'./project/index.mkd'
p127
F1364825634.1941383
sS'./blog/Ubuntu/posts/index.mkd'
p128
F1364825634.1901383
sS'./blog/Qs/posts/6.mkd'
p129
F1364825634.1901383
sS'./blog/C/posts/7.mkd'
p130
F1364825634.1821384
sS'./blog/C/posts/5.mkd'
p131
F1364825634.1821384
sS'./blog/ArchLinux/posts/15.mkd'
p132
F1364825634.1821384
sS'./blog/Data_Structures_Qs/index.mkd'
p133
F1364825634.1861384
sS'./blog/Python/posts/16.mkd'
p134
F1364825634.1861384
sS'./blog/Python/posts/23.mkd'
p135
F1364825634.1861384
sS'./blog/ArchLinux/posts/6.mkd'
p136
F1364825634.1821384
sS'./blog/vim/posts/2.mkd'
p137
F1364825634.1901383
sS'./blog/other/posts/5.mkd'
p138
F1364825634.1901383
sS'./blog/C/posts/20.mkd'
p139
F1364825634.1821384
sS'./blog/other/index.mkd'
p140
F1364825634.1901383
sS'./wiki/cmake/index.mkd'
p141
F1364825634.1941383
sS'./blog/Programing/posts/2.mkd'
p142
F1364825634.1861384
sS'./blog/Qs/posts/8.mkd'
p143
F1364825634.1901383
sS'./blog/Python/posts/15.mkd'
p144
F1364825634.1861384
sS'./blog/other/posts/2.mkd'
p145
F1364825634.1901383
sS'./blog/Git/posts/index.mkd'
p146
F1364825634.1861384
sS'./blog/Google/posts/index.mkd'
p147
F1364825634.1861384
sS'./blog/Qs/posts/3.mkd'
p148
F1364825634.1901383
sS'./wiki/phptips/2.mkd'
p149
F1364825634.1941383
sS'./blog/vim/posts/index.mkd'
p150
F1364825634.1941383
sS'./blog/Python/posts/8.mkd'
p151
F1364825634.1901383
sS'./blog/PHP/index.mkd'
p152
F1364825634.1861384
s.