(dp0
S'./blog/other/posts/index.mkd'
p1
F1350485870.8381317
sS'./blog/C/posts/15.mkd'
p2
F1349559772.3569829
sS'./blog/C/posts/10.mkd'
p3
F1349559772.3569829
sS'./blog/javascript/posts/index.mkd'
p4
F1349559772.3569829
sS'./blog/ArchLinux/posts/2.mkd'
p5
F1349788413.6390092
sS'./blog/C/posts/index.mkd'
p6
F1349559772.3569829
sS'./blog/ArchLinux/posts/7.mkd'
p7
F1350828721.8412638
sS'./blog/vim/posts/4.mkd'
p8
F1349564020.7822893
sS'./blog/Python/posts/6.mkd'
p9
F1351117706.3765211
sS'./blog/index.mkd'
p10
F1350512757.8125653
sS'./blog/C/posts/16.mkd'
p11
F1349559772.3569829
sS'./blog/Programing/posts/index.mkd'
p12
F1349559772.3569829
sS'./blog/Python/posts/index.mkd'
p13
F1349559772.3569829
sS'./index.mkd'
p14
F1350830171.221323
sS'./wiki/python_re/index.mkd'
p15
F1349559772.3803163
sS'./blog/C/posts/19.mkd'
p16
F1349559772.3569829
sS'./blog/Python/posts/5.mkd'
p17
F1350312212.6471672
sS'./links.mkd'
p18
F1349622488.7167833
sS'./blog/Python/posts/3.mkd'
p19
F1349559772.3569829
sS'./blog/Google/index.mkd'
p20
F1349559772.3536496
sS'./blog/C/posts/8.mkd'
p21
F1349559772.3569829
sS'./blog/C/posts/6.mkd'
p22
F1349559772.3569829
sS'./blog/C/posts/17.mkd'
p23
F1349559772.3569829
sS'./blog/C/posts/2.mkd'
p24
F1349559772.3569829
sS'./blog/Qs/posts/2.mkd'
p25
F1351092021.4236021
sS'./blog/Python/posts/2.mkd'
p26
F1349559772.3569829
sS'./blog/C/posts/3.mkd'
p27
F1349559772.3569829
sS'./About.mkd'
p28
F1350344044.6251366
sS'./blog/Git/index.mkd'
p29
F1350402312.9262893
sS'./blog/javascript/index.mkd'
p30
F1349559772.3569829
sS'./wiki/php-mysql-orm/index.mkd'
p31
F1350409874.4965987
sS'./wiki/cmake/index.mkd'
p32
F1349559772.3969829
sS'./blog/ArchLinux/posts/10.mkd'
p33
F1350828858.9479361
sS'./wiki/vim_study/index.mkd'
p34
F1349559772.3869829
sS'./blog/C/posts/12.mkd'
p35
F1349559772.3569829
sS'./blog/C/posts/24.mkd'
p36
F1351089617.856837
sS'./blog/Programing/index.mkd'
p37
F1349559772.3569829
sS'./wiki/ruby/index.mkd'
p38
F1350936219.6136529
sS'./wiki/funny-c-codes/index.mkd'
p39
F1349800914.9462655
sS'./blog/ArchLinux/posts/8.mkd'
p40
F1350828604.3479257
sS'./blog/C/posts/4.mkd'
p41
F1349559772.3569829
sS'./blog/ICPC/index.mkd'
p42
F1349559772.3536496
sS'./blog/Python/index.mkd'
p43
F1351173849.8999319
sS'./blog/Qs/posts/index.mkd'
p44
F1350514642.1526425
sS'./blog/ArchLinux/posts/3.mkd'
p45
F1350058687.2213929
sS'./blog/Git/posts/3.mkd'
p46
F1350402739.8063066
sS'./blog/ArchLinux/posts/5.mkd'
p47
F1350827917.1012309
sS'./blog/Python/posts/4.mkd'
p48
F1349559772.3569829
sS'./wiki/index.mkd'
p49
F1350932701.273509
sS'./blog/vim/index.mkd'
p50
F1351087515.6667509
sS'./blog/vim/posts/5.mkd'
p51
F1349796642.5260642
sS'./blog/ArchLinux/posts/index.mkd'
p52
F1349559772.3569829
sS'./blog/C/posts/18.mkd'
p53
F1349559772.3569829
sS'./blog/PHP/posts/2.mkd'
p54
F1350846598.288662
sS'./wiki/phptips/index.mkd'
p55
F1349559772.3969829
sS'./blog/C/posts/11.mkd'
p56
F1349559772.3569829
sS'./blog/Python/posts/7.mkd'
p57
F1351173778.3499289
sS'./blog/C/posts/22.mkd'
p58
F1350311791.7804832
sS'./blog/C/posts/14.mkd'
p59
F1349559772.3569829
sS'./blog/C/posts/13.mkd'
p60
F1349559772.3569829
sS'./blog/C/posts/21.mkd'
p61
F1350243065.7835565
sS'./blog/vim/posts/6.mkd'
p62
F1351087635.1367559
sS'./blog/ICPC/posts/index.mkd'
p63
F1349559772.3536496
sS'./blog/PHP/posts/index.mkd'
p64
F1349559772.3569829
sS'./blog/ArchLinux/posts/9.mkd'
p65
F1350828717.3212636
sS'./blog/ArchLinux/posts/12.mkd'
p66
F1351008315.2934813
sS'./blog/Data_Structures_Qs/posts/index.mkd'
p67
F1349559772.3569829
sS'./blog/ArchLinux/index.mkd'
p68
F1350993503.0938444
sS'./wiki/python/index.mkd'
p69
F1350932741.7201774
sS'./blog/C/posts/9.mkd'
p70
F1349559772.3569829
sS'./blog/ArchLinux/posts/11.mkd'
p71
F1350829466.1846275
sS'./blog/C/index.mkd'
p72
F1351029282.8776727
sS'./blog/Git/posts/2.mkd'
p73
F1349559772.3536496
sS'./blog/C/posts/23.mkd'
p74
F1350344822.4851685
sS'./blog/ArchLinux/posts/4.mkd'
p75
F1350517234.3127484
sS'./blog/vim/posts/3.mkd'
p76
F1349559772.3569829
sS'./blog/Qs/index.mkd'
p77
F1351190370.2741122
sS'./wiki/phptips/3.mkd'
p78
F1349559772.3969829
sS'./project/index.mkd'
p79
F1350857566.3324442
sS'./blog/ArchLinux/posts/6.mkd'
p80
F1350828202.2312424
sS'./blog/C/posts/5.mkd'
p81
F1349559772.3569829
sS'./blog/Data_Structures_Qs/index.mkd'
p82
F1349559772.3569829
sS'./blog/C/posts/7.mkd'
p83
F1349559772.3569829
sS'./blog/vim/posts/2.mkd'
p84
F1349559772.3569829
sS'./blog/C/posts/20.mkd'
p85
F1350000607.7573915
sS'./blog/other/index.mkd'
p86
F1350485612.0014544
sS'./blog/Programing/posts/2.mkd'
p87
F1349559772.3569829
sS'./blog/Git/posts/index.mkd'
p88
F1349559772.3536496
sS'./blog/Google/posts/index.mkd'
p89
F1349559772.3569829
sS'./blog/Qs/posts/3.mkd'
p90
F1351191651.7238367
sS'./wiki/phptips/2.mkd'
p91
F1349559772.3969829
sS'./blog/vim/posts/index.mkd'
p92
F1349559772.3569829
sS'./blog/Python/posts/8.mkd'
p93
F1351173930.4766018
sS'./blog/PHP/index.mkd'
p94
F1350845765.1086278
s.