(dp0
S'./blog/Python/posts/4.mkd'
p1
F1349559772.356983
sS'./blog/Python/posts/2.mkd'
p2
F1349559772.356983
sS'./blog/Git/posts/2.mkd'
p3
F1349559772.3536496
sS'./blog/C/posts/23.mkd'
p4
F1350344822.4851685
sS'./wiki/cmake/index.mkd'
p5
F1349559772.396983
sS'./blog/C/posts/22.mkd'
p6
F1350311791.7804832
sS'./blog/C/index.mkd'
p7
F1350344528.0418231
sS'./wiki/index.mkd'
p8
F1350389902.9291146
sS'./About.mkd'
p9
F1350344044.6251366
sS'./wiki/phptips/3.mkd'
p10
F1349559772.396983
sS'./blog/C/posts/3.mkd'
p11
F1349559772.356983
sS'./project/index.mkd'
p12
F1350397843.3294396
sS'./blog/Git/index.mkd'
p13
F1350402312.9262893
sS'./blog/vim/posts/5.mkd'
p14
F1349796642.5260642
sS'./blog/ArchLinux/posts/index.mkd'
p15
F1349559772.356983
sS'./blog/C/posts/18.mkd'
p16
F1349559772.356983
sS'./blog/C/posts/15.mkd'
p17
F1349559772.356983
sS'./blog/javascript/index.mkd'
p18
F1349559772.356983
sS'./blog/C/posts/7.mkd'
p19
F1349559772.356983
sS'./blog/C/posts/11.mkd'
p20
F1349559772.356983
sS'./blog/C/posts/10.mkd'
p21
F1349559772.356983
sS'./blog/vim/posts/3.mkd'
p22
F1349559772.356983
sS'./wiki/php-mysql-orm/index.mkd'
p23
F1350409874.4965987
sS'./blog/vim/posts/4.mkd'
p24
F1349564020.7822893
sS'./wiki/phptips/index.mkd'
p25
F1349559772.396983
sS'./blog/C/posts/4.mkd'
p26
F1349559772.356983
sS'./blog/javascript/posts/index.mkd'
p27
F1349559772.356983
sS'./blog/vim/index.mkd'
p28
F1349795438.5960073
sS'./blog/ICPC/index.mkd'
p29
F1349559772.3536496
sS'./blog/Data_Structures_Qs/index.mkd'
p30
F1349559772.356983
sS'./blog/ArchLinux/posts/2.mkd'
p31
F1349788413.6390092
sS'./blog/C/posts/index.mkd'
p32
F1349559772.356983
sS'./blog/other/posts/index.mkd'
p33
F1350485870.8381317
sS'./wiki/vim_study/index.mkd'
p34
F1349559772.386983
sS'./blog/ICPC/posts/index.mkd'
p35
F1349559772.3536496
sS'./blog/C/posts/12.mkd'
p36
F1349559772.356983
sS'./blog/C/posts/21.mkd'
p37
F1350243065.7835565
sS'./blog/C/posts/14.mkd'
p38
F1349559772.356983
sS'./blog/C/posts/9.mkd'
p39
F1349559772.356983
sS'./blog/C/posts/13.mkd'
p40
F1349559772.356983
sS'./blog/index.mkd'
p41
F1350485585.9581199
sS'./blog/Programing/index.mkd'
p42
F1349559772.356983
sS'./blog/C/posts/20.mkd'
p43
F1350000607.7573915
sS'./blog/C/posts/16.mkd'
p44
F1349559772.356983
sS'./blog/Programing/posts/index.mkd'
p45
F1349559772.356983
sS'./wiki/phptips/2.mkd'
p46
F1349559772.396983
sS'./blog/C/posts/2.mkd'
p47
F1349559772.356983
sS'./blog/Python/posts/index.mkd'
p48
F1349559772.356983
sS'./index.mkd'
p49
F1350483892.791384
sS'./wiki/python_re/index.mkd'
p50
F1349559772.3803163
sS'./blog/C/posts/19.mkd'
p51
F1349559772.356983
sS'./blog/other/index.mkd'
p52
F1350485612.0014544
sS'./blog/Programing/posts/2.mkd'
p53
F1349559772.356983
sS'./blog/Python/posts/5.mkd'
p54
F1350312212.6471672
sS'./blog/PHP/posts/index.mkd'
p55
F1349559772.356983
sS'./wiki/funny-c-codes/index.mkd'
p56
F1349800914.9462655
sS'./links.mkd'
p57
F1349622488.7167833
sS'./blog/Python/index.mkd'
p58
F1350311975.8771574
sS'./blog/Python/posts/3.mkd'
p59
F1349559772.356983
sS'./blog/Git/posts/index.mkd'
p60
F1349559772.3536496
sS'./blog/Data_Structures_Qs/posts/index.mkd'
p61
F1349559772.356983
sS'./blog/ArchLinux/index.mkd'
p62
F1350058475.4380507
sS'./wiki/python/index.mkd'
p63
F1349559772.3803163
sS'./blog/Google/posts/index.mkd'
p64
F1349559772.356983
sS'./blog/Google/index.mkd'
p65
F1349559772.3536496
sS'./blog/Git/posts/3.mkd'
p66
F1350402739.8063066
sS'./blog/C/posts/5.mkd'
p67
F1349559772.356983
sS'./blog/C/posts/8.mkd'
p68
F1349559772.356983
sS'./blog/vim/posts/index.mkd'
p69
F1349559772.356983
sS'./blog/C/posts/6.mkd'
p70
F1349559772.356983
sS'./blog/vim/posts/2.mkd'
p71
F1349559772.356983
sS'./blog/C/posts/17.mkd'
p72
F1349559772.356983
sS'./blog/ArchLinux/posts/3.mkd'
p73
F1350058687.2213929
sS'./blog/PHP/index.mkd'
p74
F1349559772.356983
s.