(dp0
S'./blog/other/posts/index.mkd'
p1
F1353767889.6955268
sS'./blog/C/posts/28.mkd'
p2
F1353940945.9538603
sS'./blog/Ubuntu/index.mkd'
p3
F1353824847.7958713
sS'./blog/vim/posts/8.mkd'
p4
F1353767889.6955268
sS'./blog/C/posts/15.mkd'
p5
F1353767889.6875267
sS'./blog/C/posts/10.mkd'
p6
F1353767889.6875267
sS'./blog/javascript/posts/index.mkd'
p7
F1353767889.6955268
sS'./blog/ArchLinux/posts/2.mkd'
p8
F1353767889.6875267
sS'./blog/C/posts/index.mkd'
p9
F1353767889.691527
sS'./blog/Qs/posts/6.mkd'
p10
F1353767889.6955268
sS'./blog/ArchLinux/posts/7.mkd'
p11
F1353767889.6875267
sS'./blog/vim/posts/4.mkd'
p12
F1353767889.6955268
sS'./blog/Python/posts/6.mkd'
p13
F1353767889.691527
sS'./blog/index.mkd'
p14
F1353768033.4155269
sS'./blog/C/posts/16.mkd'
p15
F1353767889.6875267
sS'./blog/Programing/posts/index.mkd'
p16
F1353767889.691527
sS'./blog/Python/posts/index.mkd'
p17
F1353767889.691527
sS'./index.mkd'
p18
F1353767889.6955268
sS'./wiki/python_re/index.mkd'
p19
F1353767889.6955268
sS'./wiki/index.mkd'
p20
F1353767889.6955268
sS'./blog/C/posts/19.mkd'
p21
F1353767889.6875267
sS'./blog/Python/posts/5.mkd'
p22
F1353767889.691527
sS'./links.mkd'
p23
F1354450806.3913558
sS'./blog/Python/posts/3.mkd'
p24
F1353767889.691527
sS'./blog/Google/index.mkd'
p25
F1353767889.691527
sS'./blog/C/posts/8.mkd'
p26
F1353767889.6875267
sS'./blog/C/posts/6.mkd'
p27
F1353767889.6875267
sS'./blog/C/posts/17.mkd'
p28
F1353767889.6875267
sS'./blog/ArchLinux/posts/3.mkd'
p29
F1353767889.6875267
sS'./blog/Qs/posts/2.mkd'
p30
F1353767889.691527
sS'./blog/Python/posts/2.mkd'
p31
F1353767889.691527
sS'./blog/C/posts/3.mkd'
p32
F1353767889.6875267
sS'./About.mkd'
p33
F1353767889.6835268
sS'./blog/Data_Structures_Qs/posts/index.mkd'
p34
F1353767889.691527
sS'./blog/Git/index.mkd'
p35
F1353767889.691527
sS'./blog/javascript/index.mkd'
p36
F1353767889.6955268
sS'./blog/ArchLinux/posts/14.mkd'
p37
F1353767889.6875267
sS'./blog/C/posts/25.mkd'
p38
F1353767889.6875267
sS'./wiki/php-mysql-orm/index.mkd'
p39
F1353767889.6955268
sS'./wiki/cmake/index.mkd'
p40
F1353767889.6955268
sS'./blog/ArchLinux/posts/10.mkd'
p41
F1353767889.6835268
sS'./wiki/vim_study/index.mkd'
p42
F1353767889.6955268
sS'./blog/Python/posts/12.mkd'
p43
F1353767889.691527
sS'./blog/C/posts/12.mkd'
p44
F1353767889.6875267
sS'./blog/C/posts/24.mkd'
p45
F1353767889.6875267
sS'./blog/Programing/index.mkd'
p46
F1353767889.691527
sS'./wiki/ruby/index.mkd'
p47
F1353767889.6955268
sS'./blog/Python/posts/13.mkd'
p48
F1353767889.691527
sS'./wiki/funny-c-codes/index.mkd'
p49
F1353856258.0353024
sS'./blog/Python/posts/11.mkd'
p50
F1353767889.691527
sS'./blog/ArchLinux/posts/8.mkd'
p51
F1353767889.6875267
sS'./blog/C/posts/4.mkd'
p52
F1353767889.6875267
sS'./blog/ICPC/index.mkd'
p53
F1353767889.691527
sS'./blog/Python/index.mkd'
p54
F1354367309.5152326
sS'./blog/Qs/posts/index.mkd'
p55
F1353767889.6955268
sS'./blog/Ubuntu/posts/3.mkd'
p56
F1353825020.3518713
sS'./blog/C/posts/2.mkd'
p57
F1353767889.6875267
sS'./blog/Git/posts/3.mkd'
p58
F1353767889.691527
sS'./blog/ArchLinux/posts/5.mkd'
p59
F1353767889.6875267
sS'./blog/Python/posts/4.mkd'
p60
F1353767889.691527
sS'./blog/C/posts/26.mkd'
p61
F1353767889.6875267
sS'./dir_html.mkd'
p62
F1353767889.6955268
sS'./blog/Python/posts/14.mkd'
p63
F1353767889.691527
sS'./blog/vim/index.mkd'
p64
F1353767889.6955268
sS'./blog/vim/posts/5.mkd'
p65
F1353767889.6955268
sS'./blog/ArchLinux/posts/index.mkd'
p66
F1353767889.6875267
sS'./blog/C/posts/18.mkd'
p67
F1353767889.6875267
sS'./blog/PHP/posts/2.mkd'
p68
F1353767889.691527
sS'./wiki/phptips/index.mkd'
p69
F1353767889.6955268
sS'./blog/C/posts/11.mkd'
p70
F1353767889.6875267
sS'./blog/Python/posts/7.mkd'
p71
F1353767889.691527
sS'./blog/Python/posts/9.mkd'
p72
F1353767889.691527
sS'./blog/ArchLinux/posts/4.mkd'
p73
F1353767889.6875267
sS'./blog/Qs/posts/4.mkd'
p74
F1353767889.691527
sS'./blog/C/posts/14.mkd'
p75
F1353767889.6875267
sS'./blog/C/posts/13.mkd'
p76
F1353767889.6875267
sS'./blog/C/posts/21.mkd'
p77
F1353767889.6875267
sS'./blog/vim/posts/6.mkd'
p78
F1353767889.6955268
sS'./blog/ArchLinux/posts/13.mkd'
p79
F1353767889.6835268
sS'./blog/C/posts/27.mkd'
p80
F1353767889.6875267
sS'./blog/ICPC/posts/index.mkd'
p81
F1353767889.691527
sS'./blog/Ubuntu/posts/2.mkd'
p82
F1353819518.1238716
sS'./blog/PHP/posts/index.mkd'
p83
F1353767889.691527
sS'./blog/ArchLinux/posts/9.mkd'
p84
F1353767889.6875267
sS'./blog/ArchLinux/posts/12.mkd'
p85
F1353767889.6835268
sS'./blog/Python/posts/10.mkd'
p86
F1353767889.691527
sS'./blog/ArchLinux/index.mkd'
p87
F1353767889.6835268
sS'./wiki/python/index.mkd'
p88
F1353767889.6955268
sS'./blog/C/posts/9.mkd'
p89
F1353767889.691527
sS'./blog/Qs/posts/5.mkd'
p90
F1353767889.6955268
sS'./blog/ArchLinux/posts/11.mkd'
p91
F1353767889.6835268
sS'./blog/vim/posts/7.mkd'
p92
F1353767889.6955268
sS'./blog/C/index.mkd'
p93
F1353939419.6338603
sS'./blog/Git/posts/2.mkd'
p94
F1353767889.691527
sS'./blog/C/posts/23.mkd'
p95
F1353767889.6875267
sS'./blog/C/posts/22.mkd'
p96
F1353767889.6875267
sS'./blog/vim/posts/3.mkd'
p97
F1353767889.6955268
sS'./blog/Qs/index.mkd'
p98
F1354458695.671355
sS'./wiki/phptips/3.mkd'
p99
F1353767889.6955268
sS'./project/index.mkd'
p100
F1353767889.6955268
sS'./blog/Ubuntu/posts/index.mkd'
p101
F1353769353.7315266
sS'./blog/C/posts/7.mkd'
p102
F1353767889.6875267
sS'./blog/C/posts/5.mkd'
p103
F1353767889.6875267
sS'./blog/ArchLinux/posts/15.mkd'
p104
F1353767889.6875267
sS'./blog/Data_Structures_Qs/index.mkd'
p105
F1353767889.691527
sS'./blog/Python/posts/16.mkd'
p106
F1354502423.1992247
sS'./blog/Qs/posts/7.mkd'
p107
F1354458984.687355
sS'./blog/ArchLinux/posts/6.mkd'
p108
F1353767889.6875267
sS'./blog/vim/posts/2.mkd'
p109
F1353767889.6955268
sS'./blog/C/posts/20.mkd'
p110
F1353767889.6875267
sS'./blog/other/index.mkd'
p111
F1353767889.6955268
sS'./blog/Programing/posts/2.mkd'
p112
F1353767889.691527
sS'./blog/Python/posts/15.mkd'
p113
F1354000619.9041195
sS'./blog/other/posts/2.mkd'
p114
F1353767889.6955268
sS'./blog/Git/posts/index.mkd'
p115
F1353767889.691527
sS'./blog/Google/posts/index.mkd'
p116
F1353767889.691527
sS'./blog/Qs/posts/3.mkd'
p117
F1353767889.691527
sS'./wiki/phptips/2.mkd'
p118
F1353767889.6955268
sS'./blog/vim/posts/index.mkd'
p119
F1353767889.6955268
sS'./blog/Python/posts/8.mkd'
p120
F1353767889.691527
sS'./blog/PHP/index.mkd'
p121
F1353767889.691527
s.