(dp0
S'./blog/Python/posts/4.mkd'
p1
F1349559772.356983
sS'./blog/Python/posts/2.mkd'
p2
F1349559772.356983
sS'./blog/Git/posts/2.mkd'
p3
F1349559772.3536496
sS'./wiki/cmake/index.mkd'
p4
F1349559772.396983
sS'./blog/C/index.mkd'
p5
F1349622597.880121
sS'./wiki/index.mkd'
p6
F1349559772.356983
sS'./About.mkd'
p7
F1349559772.3536496
sS'./wiki/phptips/3.mkd'
p8
F1349559772.396983
sS'./blog/C/posts/3.mkd'
p9
F1349559772.356983
sS'./project/index.mkd'
p10
F1349559772.3536496
sS'./blog/Git/index.mkd'
p11
F1349559772.3536496
sS'./blog/ArchLinux/posts/index.mkd'
p12
F1349559772.356983
sS'./blog/C/posts/18.mkd'
p13
F1349559772.356983
sS'./blog/C/posts/15.mkd'
p14
F1349559772.356983
sS'./blog/javascript/index.mkd'
p15
F1349559772.356983
sS'./blog/C/posts/7.mkd'
p16
F1349559772.356983
sS'./blog/C/posts/11.mkd'
p17
F1349559772.356983
sS'./blog/C/posts/10.mkd'
p18
F1349559772.356983
sS'./blog/vim/posts/3.mkd'
p19
F1349559772.356983
sS'./wiki/phptips/index.mkd'
p20
F1349559772.396983
sS'./blog/C/posts/4.mkd'
p21
F1349559772.356983
sS'./blog/javascript/posts/index.mkd'
p22
F1349559772.356983
sS'./blog/vim/index.mkd'
p23
F1349560077.9603288
sS'./wiki/vim_study/index.mkd'
p24
F1349559772.386983
sS'./blog/Data_Structures_Qs/index.mkd'
p25
F1349559772.356983
sS'./blog/ArchLinux/posts/2.mkd'
p26
F1349786736.0289302
sS'./blog/C/posts/index.mkd'
p27
F1349559772.356983
sS'./blog/ICPC/posts/index.mkd'
p28
F1349559772.3536496
sS'./blog/C/posts/12.mkd'
p29
F1349559772.356983
sS'./blog/vim/posts/4.mkd'
p30
F1349564020.7822893
sS'./blog/C/posts/14.mkd'
p31
F1349559772.356983
sS'./blog/C/posts/9.mkd'
p32
F1349559772.356983
sS'./blog/C/posts/13.mkd'
p33
F1349559772.356983
sS'./blog/index.mkd'
p34
F1349559772.3536496
sS'./blog/Programing/index.mkd'
p35
F1349559772.356983
sS'./blog/C/posts/20.mkd'
p36
F1349627589.976992
sS'./blog/C/posts/16.mkd'
p37
F1349559772.356983
sS'./blog/Programing/posts/index.mkd'
p38
F1349559772.356983
sS'./wiki/phptips/2.mkd'
p39
F1349559772.396983
sS'./blog/Python/posts/index.mkd'
p40
F1349559772.356983
sS'./index.mkd'
p41
F1349563519.4489386
sS'./wiki/python_re/index.mkd'
p42
F1349559772.3803163
sS'./blog/C/posts/19.mkd'
p43
F1349559772.356983
sS'./blog/Programing/posts/2.mkd'
p44
F1349559772.356983
sS'./blog/ICPC/index.mkd'
p45
F1349559772.3536496
sS'./blog/PHP/posts/index.mkd'
p46
F1349559772.356983
sS'./links.mkd'
p47
F1349622488.7167833
sS'./blog/Python/index.mkd'
p48
F1349559772.356983
sS'./blog/Python/posts/3.mkd'
p49
F1349559772.356983
sS'./blog/Git/posts/index.mkd'
p50
F1349559772.3536496
sS'./blog/Data_Structures_Qs/posts/index.mkd'
p51
F1349559772.356983
sS'./blog/ArchLinux/index.mkd'
p52
F1349786129.0489016
sS'./wiki/python/index.mkd'
p53
F1349559772.3803163
sS'./blog/Google/posts/index.mkd'
p54
F1349559772.356983
sS'./blog/Google/index.mkd'
p55
F1349559772.3536496
sS'./blog/C/posts/5.mkd'
p56
F1349559772.356983
sS'./blog/C/posts/8.mkd'
p57
F1349559772.356983
sS'./blog/vim/posts/index.mkd'
p58
F1349559772.356983
sS'./blog/C/posts/6.mkd'
p59
F1349559772.356983
sS'./blog/vim/posts/2.mkd'
p60
F1349559772.356983
sS'./blog/C/posts/17.mkd'
p61
F1349559772.356983
sS'./blog/C/posts/2.mkd'
p62
F1349559772.356983
sS'./blog/PHP/index.mkd'
p63
F1349559772.356983
s.