(dp0
S'./blog/other/posts/index.mkd'
p1
F1359878982.679176
sS'./blog/other/posts/3.mkd'
p2
F1359878982.679176
sS'./blog/C/posts/28.mkd'
p3
F1359878982.671172
sS'./blog/Ubuntu/index.mkd'
p4
F1359878982.675174
sS'./blog/C/posts/29.mkd'
p5
F1359878982.671172
sS'./wiki/phptips/4.mkd'
p6
F1359878982.679176
sS'./blog/vim/posts/8.mkd'
p7
F1359878982.679176
sS'./blog/C/posts/15.mkd'
p8
F1359878982.671172
sS'./blog/other/posts/9.mkd'
p9
F1359878982.679176
sS'./blog/C/posts/10.mkd'
p10
F1359878982.671172
sS'./blog/Python/posts/20.mkd'
p11
F1359878982.675174
sS'./blog/javascript/posts/index.mkd'
p12
F1359878982.675174
sS'./blog/ArchLinux/posts/2.mkd'
p13
F1359878982.655164
sS'./blog/C/posts/index.mkd'
p14
F1359878982.671172
sS'./blog/Git/posts/4.mkd'
p15
F1359878982.671172
sS'./blog/ArchLinux/posts/7.mkd'
p16
F1359878982.655164
sS'./blog/vim/posts/4.mkd'
p17
F1359878982.679176
sS'./blog/Python/posts/6.mkd'
p18
F1359878982.675174
sS'./blog/vim/posts/3.mkd'
p19
F1359878982.679176
sS'./blog/C/posts/16.mkd'
p20
F1359878982.671172
sS'./blog/Programing/posts/index.mkd'
p21
F1359878982.675174
sS'./blog/Python/posts/index.mkd'
p22
F1359878982.675174
sS'./index.mkd'
p23
F1361956905.4916463
sS'./wiki/python_re/index.mkd'
p24
F1359878982.683178
sS'./wiki/index.mkd'
p25
F1359878982.679176
sS'./blog/C/posts/19.mkd'
p26
F1359878982.671172
sS'./blog/Python/posts/5.mkd'
p27
F1359878982.675174
sS'./links.mkd'
p28
F1360053672.0896237
sS'./blog/other/posts/10.mkd'
p29
F1359878982.675174
sS'./blog/Python/posts/22.mkd'
p30
F1359878982.675174
sS'./blog/other/posts/11.mkd'
p31
F1359878982.675174
sS'./blog/Python/posts/3.mkd'
p32
F1359878982.675174
sS'./blog/Git/posts/5.mkd'
p33
F1359878982.671172
sS'./blog/Google/index.mkd'
p34
F1359878982.675174
sS'./blog/C/posts/8.mkd'
p35
F1359878982.671172
sS'./blog/C/posts/6.mkd'
p36
F1359878982.671172
sS'./blog/C/posts/17.mkd'
p37
F1359878982.671172
sS'./blog/C/posts/2.mkd'
p38
F1359878982.671172
sS'./blog/Qs/posts/2.mkd'
p39
F1359878982.675174
sS'./blog/Python/posts/2.mkd'
p40
F1359878982.675174
sS'./blog/Ubuntu/posts/4.mkd'
p41
F1359878982.675174
sS'./blog/other/posts/6.mkd'
p42
F1359878982.679176
sS'./About.mkd'
p43
F1359878982.651162
sS'./blog/Python/posts/10.mkd'
p44
F1359878982.675174
sS'./blog/Git/index.mkd'
p45
F1359878982.671172
sS'./blog/javascript/index.mkd'
p46
F1359878982.675174
sS'./blog/Ubuntu/posts/5.mkd'
p47
F1359878982.675174
sS'./blog/ArchLinux/posts/14.mkd'
p48
F1359878982.655164
sS'./blog/C/posts/25.mkd'
p49
F1359878982.671172
sS'./wiki/php-mysql-orm/index.mkd'
p50
F1359878982.679176
sS'./blog/vim/index.mkd'
p51
F1359878982.679176
sS'./blog/ArchLinux/posts/10.mkd'
p52
F1359878982.651162
sS'./wiki/vim_study/index.mkd'
p53
F1359878982.683178
sS'./blog/Python/posts/12.mkd'
p54
F1359878982.675174
sS'./blog/other/posts/8.mkd'
p55
F1359878982.679176
sS'./blog/Python/posts/18.mkd'
p56
F1359878982.675174
sS'./blog/Git/posts/6.mkd'
p57
F1359878982.675174
sS'./blog/Git/posts/7.mkd'
p58
F1359878982.675174
sS'./blog/Python/posts/19.mkd'
p59
F1359878982.675174
sS'./blog/C/posts/12.mkd'
p60
F1359878982.671172
sS'./blog/C/posts/24.mkd'
p61
F1359878982.671172
sS'./blog/Programing/index.mkd'
p62
F1359878982.675174
sS'./blog/other/posts/4.mkd'
p63
F1359878982.679176
sS'./blog/Python/posts/13.mkd'
p64
F1359878982.675174
sS'./wiki/funny-c-codes/index.mkd'
p65
F1359879117.086346
sS'./blog/Python/posts/17.mkd'
p66
F1359878982.675174
sS'./blog/Python/posts/11.mkd'
p67
F1359878982.675174
sS'./blog/ArchLinux/posts/8.mkd'
p68
F1359878982.671172
sS'./blog/C/posts/4.mkd'
p69
F1359878982.671172
sS'./blog/Git/posts/8.mkd'
p70
F1359878982.675174
sS'./blog/coffeescript/posts/index.mkd'
p71
F1360058253.1336231
sS'./blog/Python/index.mkd'
p72
F1359878982.675174
sS'./blog/Qs/posts/index.mkd'
p73
F1359878982.675174
sS'./blog/Ubuntu/posts/3.mkd'
p74
F1359878982.675174
sS'./blog/ArchLinux/posts/3.mkd'
p75
F1359878982.655164
sS'./blog/Git/posts/3.mkd'
p76
F1359878982.671172
sS'./blog/ArchLinux/posts/5.mkd'
p77
F1359878982.655164
sS'./blog/Python/posts/4.mkd'
p78
F1359878982.675174
sS'./blog/Qs/posts/7.mkd'
p79
F1359878982.675174
sS'./blog/C/posts/26.mkd'
p80
F1359878982.671172
sS'./blog/other/posts/7.mkd'
p81
F1359878982.679176
sS'./dir_html.mkd'
p82
F1359878982.679176
sS'./blog/Python/posts/14.mkd'
p83
F1359878982.675174
sS'./blog/C/posts/3.mkd'
p84
F1359878982.671172
sS'./blog/vim/posts/5.mkd'
p85
F1359878982.679176
sS'./blog/ArchLinux/posts/index.mkd'
p86
F1359878982.671172
sS'./blog/C/posts/18.mkd'
p87
F1359878982.671172
sS'./blog/PHP/posts/2.mkd'
p88
F1359878982.675174
sS'./wiki/phptips/index.mkd'
p89
F1359878982.679176
sS'./blog/C/posts/11.mkd'
p90
F1359878982.671172
sS'./blog/Python/posts/7.mkd'
p91
F1359878982.675174
sS'./blog/Python/posts/9.mkd'
p92
F1359878982.675174
sS'./blog/ICPC/index.mkd'
p93
F1359878982.675174
sS'./blog/ArchLinux/posts/4.mkd'
p94
F1359878982.655164
sS'./blog/Qs/posts/4.mkd'
p95
F1359878982.675174
sS'./blog/C/posts/14.mkd'
p96
F1359878982.671172
sS'./blog/C/posts/13.mkd'
p97
F1359878982.671172
sS'./wiki/C-tricks/index.mkd'
p98
F1359880591.747027
sS'./blog/coffeescript/index.mkd'
p99
F1360057241.3696232
sS'./blog/C/posts/21.mkd'
p100
F1359878982.671172
sS'./blog/vim/posts/6.mkd'
p101
F1359878982.679176
sS'./blog/ArchLinux/posts/13.mkd'
p102
F1359878982.655164
sS'./blog/C/posts/27.mkd'
p103
F1359878982.671172
sS'./blog/Python/posts/21.mkd'
p104
F1359878982.675174
sS'./blog/vim/posts/9.mkd'
p105
F1359878982.679176
sS'./blog/ICPC/posts/index.mkd'
p106
F1359878982.675174
sS'./blog/Ubuntu/posts/2.mkd'
p107
F1359878982.675174
sS'./blog/PHP/posts/index.mkd'
p108
F1359878982.675174
sS'./blog/ArchLinux/posts/9.mkd'
p109
F1359878982.671172
sS'./blog/ArchLinux/posts/12.mkd'
p110
F1359878982.655164
sS'./blog/Data_Structures_Qs/posts/index.mkd'
p111
F1359878982.671172
sS'./blog/ArchLinux/index.mkd'
p112
F1359878982.651162
sS'./wiki/python/index.mkd'
p113
F1359878982.683178
sS'./blog/C/posts/9.mkd'
p114
F1359878982.671172
sS'./blog/Qs/posts/5.mkd'
p115
F1359878982.675174
sS'./blog/ArchLinux/posts/11.mkd'
p116
F1359878982.655164
sS'./blog/vim/posts/7.mkd'
p117
F1359878982.679176
sS'./blog/C/index.mkd'
p118
F1359878982.671172
sS'./blog/Git/posts/2.mkd'
p119
F1359878982.671172
sS'./blog/C/posts/23.mkd'
p120
F1359878982.671172
sS'./blog/C/posts/22.mkd'
p121
F1359878982.671172
sS'./blog/index.mkd'
p122
F1360057182.7776232
sS'./blog/PHP/posts/3.mkd'
p123
F1359878982.675174
sS'./blog/Qs/index.mkd'
p124
F1359878982.675174
sS'./wiki/phptips/3.mkd'
p125
F1359878982.679176
sS'./project/index.mkd'
p126
F1361458452.8496125
sS'./blog/Ubuntu/posts/index.mkd'
p127
F1359878982.675174
sS'./blog/Qs/posts/6.mkd'
p128
F1359878982.675174
sS'./blog/C/posts/7.mkd'
p129
F1359878982.671172
sS'./blog/C/posts/5.mkd'
p130
F1359878982.671172
sS'./blog/ArchLinux/posts/15.mkd'
p131
F1359878982.655164
sS'./blog/Data_Structures_Qs/index.mkd'
p132
F1359878982.671172
sS'./blog/Python/posts/16.mkd'
p133
F1359878982.675174
sS'./blog/Python/posts/23.mkd'
p134
F1359878982.675174
sS'./blog/ArchLinux/posts/6.mkd'
p135
F1359878982.655164
sS'./blog/vim/posts/2.mkd'
p136
F1359878982.679176
sS'./blog/other/posts/5.mkd'
p137
F1359878982.679176
sS'./blog/C/posts/20.mkd'
p138
F1359878982.671172
sS'./blog/other/index.mkd'
p139
F1359878982.675174
sS'./wiki/cmake/index.mkd'
p140
F1359878982.679176
sS'./blog/Programing/posts/2.mkd'
p141
F1359878982.675174
sS'./blog/Qs/posts/8.mkd'
p142
F1359878982.675174
sS'./blog/Python/posts/15.mkd'
p143
F1359878982.675174
sS'./blog/other/posts/2.mkd'
p144
F1359878982.675174
sS'./blog/Git/posts/index.mkd'
p145
F1359878982.675174
sS'./blog/Google/posts/index.mkd'
p146
F1359878982.675174
sS'./blog/Qs/posts/3.mkd'
p147
F1359878982.675174
sS'./wiki/phptips/2.mkd'
p148
F1359878982.679176
sS'./blog/vim/posts/index.mkd'
p149
F1359878982.679176
sS'./blog/Python/posts/8.mkd'
p150
F1359878982.675174
sS'./blog/PHP/index.mkd'
p151
F1359878982.675174
s.