(dp0
S'./blog/other/posts/index.mkd'
p1
F1356095463.3429859
sS'./blog/other/posts/3.mkd'
p2
F1356095463.3429859
sS'./blog/C/posts/28.mkd'
p3
F1356095463.338986
sS'./blog/Ubuntu/index.mkd'
p4
F1357742295.3271778
sS'./wiki/phptips/4.mkd'
p5
F1357029525.2586927
sS'./blog/vim/posts/8.mkd'
p6
F1356095463.3469858
sS'./blog/C/posts/15.mkd'
p7
F1356095463.334986
sS'./blog/other/posts/9.mkd'
p8
F1357744448.736765
sS'./blog/C/posts/10.mkd'
p9
F1356095463.334986
sS'./blog/Python/posts/20.mkd'
p10
F1356838480.469708
sS'./blog/javascript/posts/index.mkd'
p11
F1356095463.3429859
sS'./blog/ArchLinux/posts/2.mkd'
p12
F1356095463.334986
sS'./blog/C/posts/index.mkd'
p13
F1356095463.338986
sS'./blog/Git/posts/4.mkd'
p14
F1357299143.1783478
sS'./blog/ArchLinux/posts/7.mkd'
p15
F1356095463.334986
sS'./blog/vim/posts/4.mkd'
p16
F1357303768.1543474
sS'./blog/Python/posts/6.mkd'
p17
F1356095463.338986
sS'./blog/vim/posts/3.mkd'
p18
F1356095463.3429859
sS'./blog/C/posts/16.mkd'
p19
F1356095463.334986
sS'./blog/Programing/posts/index.mkd'
p20
F1356095463.338986
sS'./blog/Python/posts/index.mkd'
p21
F1356095463.338986
sS'./index.mkd'
p22
F1357299289.9423478
sS'./wiki/python_re/index.mkd'
p23
F1356095463.3469858
sS'./dir_html.mkd'
p24
F1357366964.5961678
sS'./blog/C/posts/19.mkd'
p25
F1356095463.334986
sS'./blog/Python/posts/5.mkd'
p26
F1356095463.338986
sS'./links.mkd'
p27
F1356095463.3469858
sS'./blog/other/posts/10.mkd'
p28
F1357744735.4247649
sS'./blog/Python/posts/3.mkd'
p29
F1356095463.338986
sS'./blog/other/posts/11.mkd'
p30
F1357802069.8581674
sS'./blog/Git/posts/5.mkd'
p31
F1357376820.5281677
sS'./blog/Google/index.mkd'
p32
F1356095463.338986
sS'./blog/C/posts/8.mkd'
p33
F1356095463.338986
sS'./blog/C/posts/6.mkd'
p34
F1356095463.338986
sS'./blog/C/posts/17.mkd'
p35
F1356095463.334986
sS'./blog/ArchLinux/posts/3.mkd'
p36
F1356095463.334986
sS'./blog/Qs/posts/2.mkd'
p37
F1356095463.3429859
sS'./blog/Python/posts/2.mkd'
p38
F1356095463.338986
sS'./blog/Ubuntu/posts/4.mkd'
p39
F1356095463.3429859
sS'./blog/other/posts/6.mkd'
p40
F1357040896.8706985
sS'./About.mkd'
p41
F1356095463.334986
sS'./blog/Python/posts/10.mkd'
p42
F1356095463.338986
sS'./blog/Git/index.mkd'
p43
F1357366915.588168
sS'./blog/Git/posts/2.mkd'
p44
F1356095463.338986
sS'./blog/javascript/index.mkd'
p45
F1356095463.3429859
sS'./blog/Ubuntu/posts/5.mkd'
p46
F1357742966.183178
sS'./blog/ArchLinux/posts/14.mkd'
p47
F1356095463.334986
sS'./blog/C/posts/25.mkd'
p48
F1356095463.338986
sS'./wiki/php-mysql-orm/index.mkd'
p49
F1356095463.3469858
sS'./wiki/cmake/index.mkd'
p50
F1356095463.3469858
sS'./blog/ArchLinux/posts/10.mkd'
p51
F1356095463.334986
sS'./wiki/vim_study/index.mkd'
p52
F1356095463.3469858
sS'./blog/Python/posts/12.mkd'
p53
F1356095463.338986
sS'./blog/other/posts/8.mkd'
p54
F1357304975.9263473
sS'./blog/Python/posts/18.mkd'
p55
F1356095463.338986
sS'./blog/Python/posts/19.mkd'
p56
F1356272365.1416137
sS'./blog/C/posts/12.mkd'
p57
F1356095463.334986
sS'./blog/C/posts/24.mkd'
p58
F1356095463.338986
sS'./blog/Programing/index.mkd'
p59
F1356095463.338986
sS'./blog/other/posts/4.mkd'
p60
F1356095463.3429859
sS'./blog/Python/posts/13.mkd'
p61
F1356095463.338986
sS'./wiki/funny-c-codes/index.mkd'
p62
F1356095463.3469858
sS'./blog/Python/posts/17.mkd'
p63
F1356095463.338986
sS'./blog/Python/posts/11.mkd'
p64
F1356095463.338986
sS'./blog/ArchLinux/posts/8.mkd'
p65
F1356095463.334986
sS'./blog/C/posts/4.mkd'
p66
F1356095463.338986
sS'./blog/ICPC/index.mkd'
p67
F1356095463.338986
sS'./blog/Python/index.mkd'
p68
F1357471058.7573454
sS'./blog/Qs/posts/index.mkd'
p69
F1356095463.3429859
sS'./blog/Ubuntu/posts/3.mkd'
p70
F1356095463.3429859
sS'./blog/C/posts/2.mkd'
p71
F1356095463.334986
sS'./blog/Git/posts/3.mkd'
p72
F1356095463.338986
sS'./blog/ArchLinux/posts/5.mkd'
p73
F1356095463.334986
sS'./blog/Python/posts/4.mkd'
p74
F1356095463.338986
sS'./blog/C/posts/26.mkd'
p75
F1356095463.338986
sS'./blog/other/posts/7.mkd'
p76
F1357051925.6772306
sS'./wiki/index.mkd'
p77
F1356955928.886221
sS'./blog/Python/posts/14.mkd'
p78
F1356095463.338986
sS'./blog/C/posts/3.mkd'
p79
F1356095463.338986
sS'./blog/vim/posts/5.mkd'
p80
F1356095463.3429859
sS'./blog/ArchLinux/posts/index.mkd'
p81
F1356095463.334986
sS'./blog/C/posts/18.mkd'
p82
F1356095463.334986
sS'./blog/PHP/posts/2.mkd'
p83
F1356095463.338986
sS'./wiki/phptips/index.mkd'
p84
F1357029012.3266926
sS'./blog/C/posts/11.mkd'
p85
F1356095463.334986
sS'./blog/Python/posts/7.mkd'
p86
F1356095463.338986
sS'./blog/Python/posts/9.mkd'
p87
F1356095463.338986
sS'./blog/C/posts/22.mkd'
p88
F1356095463.334986
sS'./blog/Qs/posts/4.mkd'
p89
F1356095463.3429859
sS'./blog/C/posts/14.mkd'
p90
F1356095463.334986
sS'./blog/C/posts/13.mkd'
p91
F1356095463.334986
sS'./blog/C/posts/21.mkd'
p92
F1356095463.334986
sS'./blog/vim/posts/6.mkd'
p93
F1356095463.3429859
sS'./blog/ArchLinux/posts/13.mkd'
p94
F1356095463.334986
sS'./blog/C/posts/27.mkd'
p95
F1356095463.338986
sS'./blog/Python/posts/21.mkd'
p96
F1356955554.770221
sS'./blog/vim/posts/9.mkd'
p97
F1356786316.7895334
sS'./blog/ICPC/posts/index.mkd'
p98
F1356095463.338986
sS'./blog/Ubuntu/posts/2.mkd'
p99
F1356095463.3429859
sS'./blog/PHP/posts/index.mkd'
p100
F1356095463.338986
sS'./blog/ArchLinux/posts/9.mkd'
p101
F1356095463.334986
sS'./blog/ArchLinux/posts/12.mkd'
p102
F1356095463.334986
sS'./blog/Data_Structures_Qs/posts/index.mkd'
p103
F1356095463.338986
sS'./blog/ArchLinux/index.mkd'
p104
F1356095463.334986
sS'./wiki/python/index.mkd'
p105
F1356095463.3469858
sS'./blog/C/posts/9.mkd'
p106
F1356095463.338986
sS'./blog/Qs/posts/5.mkd'
p107
F1356095463.3429859
sS'./blog/ArchLinux/posts/11.mkd'
p108
F1356095463.334986
sS'./blog/vim/posts/7.mkd'
p109
F1356095463.3469858
sS'./blog/C/index.mkd'
p110
F1356095463.334986
sS'./blog/vim/index.mkd'
p111
F1356786226.2815335
sS'./blog/C/posts/23.mkd'
p112
F1356095463.338986
sS'./blog/ArchLinux/posts/4.mkd'
p113
F1356095463.334986
sS'./blog/index.mkd'
p114
F1356095463.3429859
sS'./blog/PHP/posts/3.mkd'
p115
F1357193776.1201825
sS'./blog/Qs/index.mkd'
p116
F1356970434.5022206
sS'./wiki/phptips/3.mkd'
p117
F1357029386.5666926
sS'./project/index.mkd'
p118
F1357542973.5528078
sS'./blog/Ubuntu/posts/index.mkd'
p119
F1356095463.3429859
sS'./blog/ArchLinux/posts/6.mkd'
p120
F1356095463.334986
sS'./blog/C/posts/5.mkd'
p121
F1356095463.338986
sS'./blog/ArchLinux/posts/15.mkd'
p122
F1356095463.334986
sS'./blog/Data_Structures_Qs/index.mkd'
p123
F1356095463.338986
sS'./blog/Qs/posts/6.mkd'
p124
F1356095463.3429859
sS'./blog/Qs/posts/7.mkd'
p125
F1356095463.3429859
sS'./blog/C/posts/7.mkd'
p126
F1356095463.338986
sS'./blog/vim/posts/2.mkd'
p127
F1356095463.3429859
sS'./blog/other/posts/5.mkd'
p128
F1357037735.7906969
sS'./blog/C/posts/20.mkd'
p129
F1356095463.334986
sS'./blog/other/index.mkd'
p130
F1357797922.558169
sS'./blog/Programing/posts/2.mkd'
p131
F1356095463.338986
sS'./blog/Qs/posts/8.mkd'
p132
F1356970620.1862206
sS'./blog/Python/posts/22.mkd'
p133
F1357471596.8813455
sS'./blog/Python/posts/15.mkd'
p134
F1356095463.338986
sS'./blog/other/posts/2.mkd'
p135
F1356095463.3429859
sS'./blog/Git/posts/index.mkd'
p136
F1356095463.338986
sS'./blog/Google/posts/index.mkd'
p137
F1356095463.338986
sS'./blog/Qs/posts/3.mkd'
p138
F1356095463.3429859
sS'./blog/Python/posts/16.mkd'
p139
F1356095463.338986
sS'./wiki/phptips/2.mkd'
p140
F1357029376.9026928
sS'./blog/vim/posts/index.mkd'
p141
F1356095463.3469858
sS'./blog/Python/posts/8.mkd'
p142
F1356095463.338986
sS'./blog/PHP/index.mkd'
p143
F1357193441.5121825
s.